(dp0
Vengine
p1
Vpdflatex
p2
sVsynctex
p3
I01
sVpackages
p4
c__builtin__
set
p5
((lp6
Venumitem
p7
aVxcolor
p8
aVindentfirst
p9
aVgeometry
p10
aVbabel
p11
aVfontspec
p12
aVfancyhdr
p13
aVragged2e
p14
aVbookmark
p15
aVxurl
p16
aVbiblatex
p17
aVcsquotes
p18
aVgraphicx
p19
aVsetspace
p20
atp21
Rp22
sVfiles_with_guttermarks
p23
g5
((lp24
S'template.tex'
p25
atp26
Rp27
s.